; Function Attrs: nounwind uwtable
define ptr @l_Lean_KVMap_get_x3f___rarg(ptr noundef %0, ptr noundef %1, ptr noundef %2) local_unnamed_addr #0 {
  %4 = tail call ptr @l_Lean_KVMap_findCore(ptr noundef %1, ptr noundef %2)
  %5 = ptrtoint ptr %4 to i64
  %6 = and i64 %5, 1
  %.not.i22 = icmp eq i64 %6, 0
  br i1 %.not.i22, label %10, label %7

7:                                                ; preds = %3
  %8 = lshr i64 %5, 1
  %9 = trunc i64 %8 to i32
  br label %lean_obj_tag.exit

10:                                               ; preds = %3
  %11 = getelementptr i8, ptr %4, i64 4
  %.val.i = load i32, ptr %11, align 4
  %12 = lshr i32 %.val.i, 24
  br label %lean_obj_tag.exit

lean_obj_tag.exit:                                ; preds = %7, %10
  %.0.i = phi i32 [ %9, %7 ], [ %12, %10 ]
  %13 = icmp eq i32 %.0.i, 0
  br i1 %13, label %14, label %24

14:                                               ; preds = %lean_obj_tag.exit
  %15 = ptrtoint ptr %0 to i64
  %16 = and i64 %15, 1
  %.not31 = icmp eq i64 %16, 0
  br i1 %.not31, label %17, label %lean_dec.exit17

17:                                               ; preds = %14
  %18 = load i32, ptr %0, align 4, !tbaa !8
  %19 = icmp sgt i32 %18, 1
  br i1 %19, label %20, label %22, !prof !11

20:                                               ; preds = %17
  %21 = add nsw i32 %18, -1
  store i32 %21, ptr %0, align 4, !tbaa !8
  br label %lean_dec.exit17

22:                                               ; preds = %17
  %.not.i = icmp eq i32 %18, 0
  br i1 %.not.i, label %lean_dec.exit17, label %23

23:                                               ; preds = %22
  tail call void @lean_dec_ref_cold(ptr noundef nonnull %0) #6
  br label %lean_dec.exit17

24:                                               ; preds = %lean_obj_tag.exit
  %25 = getelementptr inbounds nuw i8, ptr %4, i64 8
  %26 = load ptr, ptr %25, align 8, !tbaa !4
  %27 = ptrtoint ptr %26 to i64
  %28 = and i64 %27, 1
  %.not = icmp eq i64 %28, 0
  br i1 %.not, label %29, label %lean_inc.exit15

29:                                               ; preds = %24
  %.val.i23 = load i32, ptr %26, align 4, !tbaa !8
  %30 = icmp sgt i32 %.val.i23, 0
  br i1 %30, label %31, label %33, !prof !11

31:                                               ; preds = %29
  %32 = add nuw i32 %.val.i23, 1
  store i32 %32, ptr %26, align 4, !tbaa !8
  br label %lean_inc.exit15

33:                                               ; preds = %29
  %.not.i24 = icmp eq i32 %.val.i23, 0
  br i1 %.not.i24, label %lean_inc.exit15, label %34

34:                                               ; preds = %33
  tail call void @lean_inc_ref_cold(ptr noundef nonnull %26) #6
  br label %lean_inc.exit15

lean_inc.exit15:                                  ; preds = %34, %33, %31, %24
  br i1 %.not.i22, label %35, label %lean_dec.exit16

35:                                               ; preds = %lean_inc.exit15
  %36 = load i32, ptr %4, align 4, !tbaa !8
  %37 = icmp sgt i32 %36, 1
  br i1 %37, label %38, label %40, !prof !11

38:                                               ; preds = %35
  %39 = add nsw i32 %36, -1
  store i32 %39, ptr %4, align 4, !tbaa !8
  br label %lean_dec.exit16

40:                                               ; preds = %35
  %.not.i18 = icmp eq i32 %36, 0
  br i1 %.not.i18, label %lean_dec.exit16, label %41

41:                                               ; preds = %40
  tail call void @lean_dec_ref_cold(ptr noundef nonnull %4) #6
  br label %lean_dec.exit16

lean_dec.exit16:                                  ; preds = %41, %40, %38, %lean_inc.exit15
  %42 = getelementptr inbounds nuw i8, ptr %0, i64 16
  %43 = load ptr, ptr %42, align 8, !tbaa !4
  %44 = ptrtoint ptr %43 to i64
  %45 = and i64 %44, 1
  %.not29 = icmp eq i64 %45, 0
  br i1 %.not29, label %46, label %lean_inc.exit

46:                                               ; preds = %lean_dec.exit16
  %.val.i25 = load i32, ptr %43, align 4, !tbaa !8
  %47 = icmp sgt i32 %.val.i25, 0
  br i1 %47, label %48, label %50, !prof !11

48:                                               ; preds = %46
  %49 = add nuw i32 %.val.i25, 1
  store i32 %49, ptr %43, align 4, !tbaa !8
  br label %lean_inc.exit

50:                                               ; preds = %46
  %.not.i26 = icmp eq i32 %.val.i25, 0
  br i1 %.not.i26, label %lean_inc.exit, label %51

51:                                               ; preds = %50
  tail call void @lean_inc_ref_cold(ptr noundef nonnull %43) #6
  br label %lean_inc.exit

lean_inc.exit:                                    ; preds = %51, %50, %48, %lean_dec.exit16
  %52 = ptrtoint ptr %0 to i64
  %53 = and i64 %52, 1
  %.not30 = icmp eq i64 %53, 0
  br i1 %.not30, label %54, label %lean_dec.exit

54:                                               ; preds = %lean_inc.exit
  %55 = load i32, ptr %0, align 4, !tbaa !8
  %56 = icmp sgt i32 %55, 1
  br i1 %56, label %57, label %59, !prof !11

57:                                               ; preds = %54
  %58 = add nsw i32 %55, -1
  store i32 %58, ptr %0, align 4, !tbaa !8
  br label %lean_dec.exit

59:                                               ; preds = %54
  %.not.i20 = icmp eq i32 %55, 0
  br i1 %.not.i20, label %lean_dec.exit, label %60

60:                                               ; preds = %59
  tail call void @lean_dec_ref_cold(ptr noundef nonnull %0) #6
  br label %lean_dec.exit

lean_dec.exit:                                    ; preds = %60, %59, %57, %lean_inc.exit
  %61 = tail call ptr @lean_apply_1(ptr noundef %43, ptr noundef %26) #6
  br label %lean_dec.exit17

lean_dec.exit17:                                  ; preds = %14, %20, %22, %23, %lean_dec.exit
  %.0 = phi ptr [ %61, %lean_dec.exit ], [ inttoptr (i64 1 to ptr), %23 ], [ inttoptr (i64 1 to ptr), %22 ], [ inttoptr (i64 1 to ptr), %20 ], [ inttoptr (i64 1 to ptr), %14 ]
  ret ptr %.0
}